target datalayout = "e-m:e-p270:32:32-p271:32:32-p272:64:64-i64:64-i128:128-f80:128-n8:16:32:64-S128"
target triple = "x86_64-unknown-linux-gnu"

%struct.UStringSearch = type { ptr, %struct.UPattern, ptr, ptr, ptr, ptr, ptr, i8, i32, i32, i32, i8 }
%struct.UPattern = type { ptr, i32, i32, ptr, [256 x i32], i32, ptr, [256 x i64], i8, i8 }
%struct.USearch = type { ptr, i32, i8, i8, i16, ptr, ptr, i32, i32, i8, i8 }

; Function Attrs: mustprogress uwtable
define internal void @_ZL17setColEIterOffsetP18UCollationElementsiR10UErrorCode(ptr noundef %elems, i32 noundef %offset, ptr noundef nonnull align 4 dereferenceable(4) %status) #0 {
entry:
  %elems.addr = alloca ptr, align 8
  %offset.addr = alloca i32, align 4
  %status.addr = alloca ptr, align 8
  store ptr %elems, ptr %elems.addr, align 8
  store i32 %offset, ptr %offset.addr, align 4
  store ptr %status, ptr %status.addr, align 8
  %0 = load ptr, ptr %elems.addr, align 8
  %1 = load i32, ptr %offset.addr, align 4
  %2 = load ptr, ptr %status.addr, align 8
  call void @ucol_setOffset_75(ptr noundef %0, i32 noundef %1, ptr noundef %2)
  ret void
}

; Function Attrs: mustprogress nounwind uwtable
define internal noundef signext i8 @_ZL13isOutOfBoundsii(i32 noundef %textlength, i32 noundef %offset) #1 {
entry:
  %textlength.addr = alloca i32, align 4
  %offset.addr = alloca i32, align 4
  store i32 %textlength, ptr %textlength.addr, align 4
  store i32 %offset, ptr %offset.addr, align 4
  %0 = load i32, ptr %offset.addr, align 4
  %cmp = icmp slt i32 %0, 0
  br i1 %cmp, label %lor.end, label %lor.rhs

lor.rhs:                                          ; preds = %entry
  %1 = load i32, ptr %offset.addr, align 4
  %2 = load i32, ptr %textlength.addr, align 4
  %cmp1 = icmp sgt i32 %1, %2
  br label %lor.end

lor.end:                                          ; preds = %lor.rhs, %entry
  %3 = phi i1 [ true, %entry ], [ %cmp1, %lor.rhs ]
  %conv = zext i1 %3 to i8
  ret i8 %conv
}

; Function Attrs: mustprogress uwtable
define void @usearch_setOffset_75(ptr noundef %strsrch, i32 noundef %position, ptr noundef %status) #0 {
entry:
  %strsrch.addr = alloca ptr, align 8
  %position.addr = alloca i32, align 4
  %status.addr = alloca ptr, align 8
  store ptr %strsrch, ptr %strsrch.addr, align 8
  store i32 %position, ptr %position.addr, align 4
  store ptr %status, ptr %status.addr, align 8
  %0 = load ptr, ptr %status.addr, align 8
  %1 = load i32, ptr %0, align 4
  %call = call noundef signext i8 @_ZL9U_SUCCESS10UErrorCode(i32 noundef %1)
  %tobool = icmp ne i8 %call, 0
  br i1 %tobool, label %land.lhs.true, label %if.end8

land.lhs.true:                                    ; preds = %entry
  %2 = load ptr, ptr %strsrch.addr, align 8
  %tobool1 = icmp ne ptr %2, null
  br i1 %tobool1, label %if.then, label %if.end8

if.then:                                          ; preds = %land.lhs.true
  %3 = load ptr, ptr %strsrch.addr, align 8
  %search = getelementptr inbounds %struct.UStringSearch, ptr %3, i32 0, i32 0
  %4 = load ptr, ptr %search, align 8
  %textLength = getelementptr inbounds %struct.USearch, ptr %4, i32 0, i32 1
  %5 = load i32, ptr %textLength, align 8
  %6 = load i32, ptr %position.addr, align 4
  %call2 = call noundef signext i8 @_ZL13isOutOfBoundsii(i32 noundef %5, i32 noundef %6)
  %tobool3 = icmp ne i8 %call2, 0
  br i1 %tobool3, label %if.then4, label %if.else

if.then4:                                         ; preds = %if.then
  %7 = load ptr, ptr %status.addr, align 8
  store i32 8, ptr %7, align 4
  br label %if.end

if.else:                                          ; preds = %if.then
  %8 = load ptr, ptr %strsrch.addr, align 8
  %textIter = getelementptr inbounds %struct.UStringSearch, ptr %8, i32 0, i32 4
  %9 = load ptr, ptr %textIter, align 8
  %10 = load i32, ptr %position.addr, align 4
  %11 = load ptr, ptr %status.addr, align 8
  call void @_ZL17setColEIterOffsetP18UCollationElementsiR10UErrorCode(ptr noundef %9, i32 noundef %10, ptr noundef nonnull align 4 dereferenceable(4) %11)
  br label %if.end

if.end:                                           ; preds = %if.else, %if.then4
  %12 = load ptr, ptr %strsrch.addr, align 8
  %search5 = getelementptr inbounds %struct.UStringSearch, ptr %12, i32 0, i32 0
  %13 = load ptr, ptr %search5, align 8
  %matchedIndex = getelementptr inbounds %struct.USearch, ptr %13, i32 0, i32 7
  store i32 -1, ptr %matchedIndex, align 8
  %14 = load ptr, ptr %strsrch.addr, align 8
  %search6 = getelementptr inbounds %struct.UStringSearch, ptr %14, i32 0, i32 0
  %15 = load ptr, ptr %search6, align 8
  %matchedLength = getelementptr inbounds %struct.USearch, ptr %15, i32 0, i32 8
  store i32 0, ptr %matchedLength, align 4
  %16 = load ptr, ptr %strsrch.addr, align 8
  %search7 = getelementptr inbounds %struct.UStringSearch, ptr %16, i32 0, i32 0
  %17 = load ptr, ptr %search7, align 8
  %reset = getelementptr inbounds %struct.USearch, ptr %17, i32 0, i32 10
  store i8 0, ptr %reset, align 1
  br label %if.end8

if.end8:                                          ; preds = %if.end, %land.lhs.true, %entry
  ret void
}

; Function Attrs: mustprogress nounwind uwtable
define internal noundef signext i8 @_ZL9U_SUCCESS10UErrorCode(i32 noundef %code) #1 {
entry:
  %code.addr = alloca i32, align 4
  store i32 %code, ptr %code.addr, align 4
  %0 = load i32, ptr %code.addr, align 4
  %cmp = icmp sle i32 %0, 0
  %conv = zext i1 %cmp to i8
  ret i8 %conv
}

; Function Attrs: mustprogress uwtable
define i32 @usearch_preceding_75(ptr noundef %strsrch, i32 noundef %position, ptr noundef %status) #0 {
entry:
  %retval = alloca i32, align 4
  %strsrch.addr = alloca ptr, align 8
  %position.addr = alloca i32, align 4
  %status.addr = alloca ptr, align 8
  store ptr %strsrch, ptr %strsrch.addr, align 8
  store i32 %position, ptr %position.addr, align 4
  store ptr %status, ptr %status.addr, align 8
  %0 = load ptr, ptr %strsrch.addr, align 8
  %tobool = icmp ne ptr %0, null
  br i1 %tobool, label %land.lhs.true, label %if.end6

land.lhs.true:                                    ; preds = %entry
  %1 = load ptr, ptr %status.addr, align 8
  %2 = load i32, ptr %1, align 4
  %call = call noundef signext i8 @_ZL9U_SUCCESS10UErrorCode(i32 noundef %2)
  %tobool1 = icmp ne i8 %call, 0
  br i1 %tobool1, label %if.then, label %if.end6

if.then:                                          ; preds = %land.lhs.true
  %3 = load ptr, ptr %strsrch.addr, align 8
  %search = getelementptr inbounds %struct.UStringSearch, ptr %3, i32 0, i32 0
  %4 = load ptr, ptr %search, align 8
  %isForwardSearching = getelementptr inbounds %struct.USearch, ptr %4, i32 0, i32 9
  store i8 0, ptr %isForwardSearching, align 8
  %5 = load ptr, ptr %strsrch.addr, align 8
  %6 = load i32, ptr %position.addr, align 4
  %7 = load ptr, ptr %status.addr, align 8
  call void @usearch_setOffset_75(ptr noundef %5, i32 noundef %6, ptr noundef %7)
  %8 = load ptr, ptr %status.addr, align 8
  %9 = load i32, ptr %8, align 4
  %call2 = call noundef signext i8 @_ZL9U_SUCCESS10UErrorCode(i32 noundef %9)
  %tobool3 = icmp ne i8 %call2, 0
  br i1 %tobool3, label %if.then4, label %if.end

if.then4:                                         ; preds = %if.then
  %10 = load ptr, ptr %strsrch.addr, align 8
  %11 = load ptr, ptr %status.addr, align 8
  %call5 = call i32 @usearch_previous_75(ptr noundef %10, ptr noundef %11)
  store i32 %call5, ptr %retval, align 4
  br label %return

if.end:                                           ; preds = %if.then
  br label %if.end6

if.end6:                                          ; preds = %if.end, %land.lhs.true, %entry
  store i32 -1, ptr %retval, align 4
  br label %return

return:                                           ; preds = %if.end6, %if.then4
  %12 = load i32, ptr %retval, align 4
  ret i32 %12
}